target datalayout = "e-m:e-p270:32:32-p271:32:32-p272:64:64-i64:64-i128:128-f80:128-n8:16:32:64-S128"
target triple = "x86_64-pc-linux-gnu"

%struct._generic_SUNAdaptController = type { ptr, ptr, ptr }
%struct.SUNAdaptControllerContent_MRIHTol_ = type { ptr, ptr, double, double, double }

; Function Attrs: nounwind uwtable
define i32 @SUNAdaptController_UpdateMRIHTol_MRIHTol(ptr noundef %0, double noundef %1, double noundef %2, double noundef %3, double noundef %4) #0 {
  %6 = alloca ptr, align 8
  %7 = alloca double, align 8
  %8 = alloca double, align 8
  %9 = alloca double, align 8
  %10 = alloca double, align 8
  %11 = alloca ptr, align 8
  store ptr %0, ptr %6, align 8, !tbaa !3
  store double %1, ptr %7, align 8, !tbaa !32
  store double %2, ptr %8, align 8, !tbaa !32
  store double %3, ptr %9, align 8, !tbaa !32
  store double %4, ptr %10, align 8, !tbaa !32
  call void @llvm.lifetime.start.p0(i64 8, ptr %11) #5
  %12 = load ptr, ptr %6, align 8, !tbaa !3
  %13 = getelementptr inbounds nuw %struct._generic_SUNAdaptController, ptr %12, i32 0, i32 2
  %14 = load ptr, ptr %13, align 8, !tbaa !37
  store ptr %14, ptr %11, align 8, !tbaa !8
  %15 = load ptr, ptr %6, align 8, !tbaa !3
  %16 = getelementptr inbounds nuw %struct._generic_SUNAdaptController, ptr %15, i32 0, i32 0
  %17 = load ptr, ptr %16, align 8, !tbaa !31
  %18 = getelementptr inbounds nuw %struct.SUNAdaptControllerContent_MRIHTol_, ptr %17, i32 0, i32 0
  %19 = load ptr, ptr %18, align 8, !tbaa !24
  %20 = load double, ptr %7, align 8, !tbaa !32
  %21 = load double, ptr %9, align 8, !tbaa !32
  %22 = call i32 @SUNAdaptController_UpdateH(ptr noundef %19, double noundef %20, double noundef %21)
  %23 = load ptr, ptr %6, align 8, !tbaa !3
  %24 = getelementptr inbounds nuw %struct._generic_SUNAdaptController, ptr %23, i32 0, i32 0
  %25 = load ptr, ptr %24, align 8, !tbaa !31
  %26 = getelementptr inbounds nuw %struct.SUNAdaptControllerContent_MRIHTol_, ptr %25, i32 0, i32 1
  %27 = load ptr, ptr %26, align 8, !tbaa !27
  %28 = load double, ptr %8, align 8, !tbaa !32
  %29 = load double, ptr %10, align 8, !tbaa !32
  %30 = call i32 @SUNAdaptController_UpdateH(ptr noundef %27, double noundef %28, double noundef %29)
  call void @llvm.lifetime.end.p0(i64 8, ptr %11) #5
  ret i32 0
}