; Function Attrs: nounwind uwtable
define noundef i32 @SUNAdaptController_UpdateMRIHTol_MRIHTol(ptr noundef readonly captures(none) %0, double noundef %1, double noundef %2, double noundef %3, double noundef %4) #0 {
  %6 = load ptr, ptr %0, align 8, !tbaa !27
  %7 = load ptr, ptr %6, align 8, !tbaa !19
  %8 = tail call i32 @SUNAdaptController_UpdateH(ptr noundef %7, double noundef %1, double noundef %3) #9
  %9 = load ptr, ptr %0, align 8, !tbaa !27
  %10 = getelementptr inbounds nuw i8, ptr %9, i64 8
  %11 = load ptr, ptr %10, align 8, !tbaa !23
  %12 = tail call i32 @SUNAdaptController_UpdateH(ptr noundef %11, double noundef %2, double noundef %4) #9
  ret i32 0
}